; Function Attrs: mustprogress uwtable
define void @_ZN8proxygen13SessionHolder6onReadERKNS_15HTTPSessionBaseEmN5folly8OptionalImEE(ptr nocapture noundef nonnull readonly align 8 dereferenceable(152) %this, ptr noundef nonnull align 8 dereferenceable(1582) %session, i64 noundef %bytesRead, ptr nocapture noundef readonly %streamId) unnamed_addr #3 align 2 personality ptr @__gxx_personality_v0 {
entry:
  %agg.tmp = alloca %"class.folly::Optional.30", align 8
  %stats_ = getelementptr inbounds i8, ptr %this, i64 56
  %0 = load ptr, ptr %stats_, align 8
  %tobool.not = icmp eq ptr %0, null
  br i1 %tobool.not, label %if.end, label %if.then

if.then:                                          ; preds = %entry
  %vtable = load ptr, ptr %0, align 8
  %vfn = getelementptr inbounds i8, ptr %vtable, i64 48
  %1 = load ptr, ptr %vfn, align 8
  tail call void %1(ptr noundef nonnull align 8 dereferenceable(8) %0, i64 noundef %bytesRead)
  br label %if.end

if.end:                                           ; preds = %if.then, %entry
  %originalSessionInfoCb_ = getelementptr inbounds i8, ptr %this, i64 144
  %2 = load ptr, ptr %originalSessionInfoCb_, align 8
  %tobool3.not = icmp eq ptr %2, null
  br i1 %tobool3.not, label %if.end8, label %if.then4

if.then4:                                         ; preds = %if.end
  store i8 0, ptr %agg.tmp, align 8
  %hasValue.i.i = getelementptr inbounds i8, ptr %agg.tmp, i64 8
  store i8 0, ptr %hasValue.i.i, align 8
  %hasValue.i.i.i = getelementptr inbounds i8, ptr %streamId, i64 8
  %3 = load i8, ptr %hasValue.i.i.i, align 8
  %4 = and i8 %3, 1
  %tobool.i.i.not.i = icmp eq i8 %4, 0
  br i1 %tobool.i.i.not.i, label %_ZN5folly8OptionalImEC2ERKS1_.exit, label %invoke.cont2.i

invoke.cont2.i:                                   ; preds = %if.then4
  %5 = load i64, ptr %streamId, align 8
  store i64 %5, ptr %agg.tmp, align 8
  store i8 1, ptr %hasValue.i.i, align 8
  br label %_ZN5folly8OptionalImEC2ERKS1_.exit

_ZN5folly8OptionalImEC2ERKS1_.exit:               ; preds = %if.then4, %invoke.cont2.i
  %vtable6 = load ptr, ptr %2, align 8
  %vfn7 = getelementptr inbounds i8, ptr %vtable6, i64 72
  %6 = load ptr, ptr %vfn7, align 8
  call void %6(ptr noundef nonnull align 8 dereferenceable(8) %2, ptr noundef nonnull align 8 dereferenceable(1582) %session, i64 noundef %bytesRead, ptr noundef nonnull %agg.tmp)
  br label %if.end8

if.end8:                                          ; preds = %_ZN5folly8OptionalImEC2ERKS1_.exit, %if.end
  ret void
}